target datalayout = "e-m:e-p270:32:32-p271:32:32-p272:64:64-i64:64-i128:128-f80:128-n8:16:32:64-S128"
target triple = "x86_64-pc-linux-gnu"

%struct.buf_t = type { i32, ptr, i32, i32, i8, i8 }

@.str.2 = private unnamed_addr constant [12 x i8] c"Entering %s\00", align 1
@__func__.io_hdr_read_fd = private unnamed_addr constant [15 x i8] c"io_hdr_read_fd\00", align 1
@.str.3 = private unnamed_addr constant [11 x i8] c"Leaving %s\00", align 1
@.str.22 = private unnamed_addr constant [30 x i8] c"Leaving  _full_read on error!\00", align 1
@.str.23 = private unnamed_addr constant [36 x i8] c"  _full_read (_client_read) got eof\00", align 1

; Function Attrs: nounwind uwtable
define internal i32 @_full_read(i32 noundef %0, ptr noundef %1, i64 noundef %2) #0 {
  %4 = alloca i32, align 4
  %5 = alloca i32, align 4
  %6 = alloca ptr, align 8
  %7 = alloca i64, align 8
  %8 = alloca i32, align 4
  %9 = alloca i32, align 4
  %10 = alloca ptr, align 8
  %11 = alloca i32, align 4
  store i32 %0, ptr %5, align 4
  store ptr %1, ptr %6, align 8
  store i64 %2, ptr %7, align 8
  call void @llvm.lifetime.start.p0(i64 4, ptr %8) #6
  call void @llvm.lifetime.start.p0(i64 4, ptr %9) #6
  call void @llvm.lifetime.start.p0(i64 8, ptr %10) #6
  %12 = load i64, ptr %7, align 8
  %13 = trunc i64 %12 to i32
  store i32 %13, ptr %9, align 4
  %14 = load ptr, ptr %6, align 8
  store ptr %14, ptr %10, align 8
  br label %15

15:                                               ; preds = %66, %3
  %16 = load i32, ptr %9, align 4
  %17 = icmp sgt i32 %16, 0
  br i1 %17, label %18, label %74

18:                                               ; preds = %15
  br label %19

19:                                               ; preds = %39, %18
  %20 = load i32, ptr %5, align 4
  %21 = load ptr, ptr %10, align 8
  %22 = load i32, ptr %9, align 4
  %23 = sext i32 %22 to i64
  %24 = call i64 @read(i32 noundef %20, ptr noundef %21, i64 noundef %23)
  %25 = trunc i64 %24 to i32
  store i32 %25, ptr %8, align 4
  %26 = icmp slt i32 %25, 0
  br i1 %26, label %27, label %51

27:                                               ; preds = %19
  %28 = call ptr @__errno_location() #7
  %29 = load i32, ptr %28, align 4
  %30 = icmp eq i32 %29, 4
  br i1 %30, label %39, label %31

31:                                               ; preds = %27
  %32 = call ptr @__errno_location() #7
  %33 = load i32, ptr %32, align 4
  %34 = icmp eq i32 %33, 11
  br i1 %34, label %39, label %35

35:                                               ; preds = %31
  %36 = call ptr @__errno_location() #7
  %37 = load i32, ptr %36, align 4
  %38 = icmp eq i32 %37, 11
  br i1 %38, label %39, label %40

39:                                               ; preds = %35, %31, %27
  br label %19

40:                                               ; preds = %35
  br label %41

41:                                               ; preds = %40
  br label %42

42:                                               ; preds = %41
  %43 = call i32 @get_log_level()
  %44 = icmp sge i32 %43, 7
  br i1 %44, label %45, label %46

45:                                               ; preds = %42
  call void (i32, ptr, ...) @log_var(i32 noundef 7, ptr noundef @.str.22)
  br label %46

46:                                               ; preds = %45, %42
  br label %47

47:                                               ; preds = %46
  br label %48

48:                                               ; preds = %47
  br label %49

49:                                               ; preds = %48
  br label %50

50:                                               ; preds = %49
  store i32 -1, ptr %4, align 4
  store i32 1, ptr %11, align 4
  br label %77

51:                                               ; preds = %19
  %52 = load i32, ptr %8, align 4
  %53 = icmp eq i32 %52, 0
  br i1 %53, label %54, label %65

54:                                               ; preds = %51
  br label %55

55:                                               ; preds = %54
  br label %56

56:                                               ; preds = %55
  %57 = call i32 @get_log_level()
  %58 = icmp sge i32 %57, 7
  br i1 %58, label %59, label %60

59:                                               ; preds = %56
  call void (i32, ptr, ...) @log_var(i32 noundef 7, ptr noundef @.str.23)
  br label %60

60:                                               ; preds = %59, %56
  br label %61

61:                                               ; preds = %60
  br label %62

62:                                               ; preds = %61
  br label %63

63:                                               ; preds = %62
  br label %64

64:                                               ; preds = %63
  store i32 0, ptr %4, align 4
  store i32 1, ptr %11, align 4
  br label %77

65:                                               ; preds = %51
  br label %66

66:                                               ; preds = %65
  %67 = load i32, ptr %8, align 4
  %68 = load i32, ptr %9, align 4
  %69 = sub nsw i32 %68, %67
  store i32 %69, ptr %9, align 4
  %70 = load i32, ptr %8, align 4
  %71 = load ptr, ptr %10, align 8
  %72 = sext i32 %70 to i64
  %73 = getelementptr inbounds i8, ptr %71, i64 %72
  store ptr %73, ptr %10, align 8
  br label %15, !llvm.loop !8

74:                                               ; preds = %15
  %75 = load i64, ptr %7, align 8
  %76 = trunc i64 %75 to i32
  store i32 %76, ptr %4, align 4
  store i32 1, ptr %11, align 4
  br label %77

77:                                               ; preds = %74, %64, %50
  call void @llvm.lifetime.end.p0(i64 8, ptr %10) #6
  call void @llvm.lifetime.end.p0(i64 4, ptr %9) #6
  call void @llvm.lifetime.end.p0(i64 4, ptr %8) #6
  %78 = load i32, ptr %4, align 4
  ret i32 %78
}

; Function Attrs: nounwind uwtable
define dso_local i32 @io_hdr_read_fd(i32 noundef %0, ptr noundef %1) #0 {
  %3 = alloca i32, align 4
  %4 = alloca ptr, align 8
  %5 = alloca i32, align 4
  %6 = alloca ptr, align 8
  store i32 %0, ptr %3, align 4
  store ptr %1, ptr %4, align 8
  call void @llvm.lifetime.start.p0(i64 4, ptr %5) #6
  store i32 0, ptr %5, align 4
  call void @llvm.lifetime.start.p0(i64 8, ptr %6) #6
  %7 = call ptr @init_buf(i32 noundef 10)
  store ptr %7, ptr %6, align 8
  br label %8

8:                                                ; preds = %2
  br label %9

9:                                                ; preds = %8
  %10 = call i32 @get_log_level()
  %11 = icmp sge i32 %10, 7
  br i1 %11, label %12, label %13

12:                                               ; preds = %9
  call void (i32, ptr, ...) @log_var(i32 noundef 7, ptr noundef @.str.2, ptr noundef @__func__.io_hdr_read_fd)
  br label %13

13:                                               ; preds = %12, %9
  br label %14

14:                                               ; preds = %13
  br label %15

15:                                               ; preds = %14
  br label %16

16:                                               ; preds = %15
  br label %17

17:                                               ; preds = %16
  %18 = load i32, ptr %3, align 4
  %19 = load ptr, ptr %6, align 8
  %20 = getelementptr inbounds nuw %struct.buf_t, ptr %19, i32 0, i32 1
  %21 = load ptr, ptr %20, align 8
  %22 = call i32 @_full_read(i32 noundef %18, ptr noundef %21, i64 noundef 10)
  store i32 %22, ptr %5, align 4
  %23 = load i32, ptr %5, align 4
  %24 = icmp sle i32 %23, 0
  br i1 %24, label %25, label %26

25:                                               ; preds = %17
  br label %33

26:                                               ; preds = %17
  %27 = load ptr, ptr %4, align 8
  %28 = load ptr, ptr %6, align 8
  %29 = call i32 @io_hdr_unpack(ptr noundef %27, ptr noundef %28)
  %30 = icmp eq i32 %29, -1
  br i1 %30, label %31, label %32

31:                                               ; preds = %26
  store i32 -1, ptr %5, align 4
  br label %33

32:                                               ; preds = %26
  br label %33

33:                                               ; preds = %32, %31, %25
  br label %34

34:                                               ; preds = %33
  br label %35

35:                                               ; preds = %34
  %36 = call i32 @get_log_level()
  %37 = icmp sge i32 %36, 7
  br i1 %37, label %38, label %39

38:                                               ; preds = %35
  call void (i32, ptr, ...) @log_var(i32 noundef 7, ptr noundef @.str.3, ptr noundef @__func__.io_hdr_read_fd)
  br label %39

39:                                               ; preds = %38, %35
  br label %40

40:                                               ; preds = %39
  br label %41

41:                                               ; preds = %40
  br label %42

42:                                               ; preds = %41
  br label %43

43:                                               ; preds = %42
  br label %44

44:                                               ; preds = %43
  %45 = load ptr, ptr %6, align 8
  %46 = icmp ne ptr %45, null
  br i1 %46, label %47, label %49

47:                                               ; preds = %44
  %48 = load ptr, ptr %6, align 8
  call void @free_buf(ptr noundef %48)
  br label %49

49:                                               ; preds = %47, %44
  store ptr null, ptr %6, align 8
  br label %50

50:                                               ; preds = %49
  br label %51

51:                                               ; preds = %50
  %52 = load i32, ptr %5, align 4
  call void @llvm.lifetime.end.p0(i64 8, ptr %6) #6
  call void @llvm.lifetime.end.p0(i64 4, ptr %5) #6
  ret i32 %52
}