; Function Attrs: nounwind uwtable
define dso_local range(i32 -1, 11) i32 @io_hdr_read_fd(i32 noundef %0, ptr noundef %1) local_unnamed_addr #0 {
  %3 = tail call ptr @init_buf(i32 noundef 10) #7
  %4 = tail call i32 @get_log_level() #7
  %5 = icmp sgt i32 %4, 6
  br i1 %5, label %6, label %7

6:                                                ; preds = %2
  tail call void (i32, ptr, ...) @log_var(i32 noundef 7, ptr noundef nonnull @.str.2, ptr noundef nonnull @__func__.io_hdr_read_fd) #7
  br label %7

7:                                                ; preds = %6, %2
  %8 = getelementptr inbounds nuw i8, ptr %3, i64 8
  %9 = load ptr, ptr %8, align 8
  br label %.preheader.i

.preheader.i:                                     ; preds = %28, %7
  %.021.i = phi ptr [ %9, %7 ], [ %31, %28 ]
  %.01220.i = phi i32 [ 10, %7 ], [ %29, %28 ]
  %10 = zext nneg i32 %.01220.i to i64
  %11 = tail call i64 @read(i32 noundef %0, ptr noundef %.021.i, i64 noundef %10) #7
  %12 = trunc i64 %11 to i32
  %13 = icmp slt i32 %12, 0
  br i1 %13, label %.lr.ph.i, label %._crit_edge.i

.lr.ph.i:                                         ; preds = %.preheader.i
  %14 = tail call ptr @__errno_location() #8
  br label %15

15:                                               ; preds = %17, %.lr.ph.i
  %16 = load i32, ptr %14, align 4
  switch i32 %16, label %21 [
    i32 4, label %17
    i32 11, label %17
  ]

17:                                               ; preds = %15, %15
  %18 = tail call i64 @read(i32 noundef %0, ptr noundef %.021.i, i64 noundef %10) #7
  %19 = trunc i64 %18 to i32
  %20 = icmp slt i32 %19, 0
  br i1 %20, label %15, label %._crit_edge.i

21:                                               ; preds = %15
  %22 = tail call i32 @get_log_level() #7
  %23 = icmp sgt i32 %22, 6
  br i1 %23, label %.loopexit.sink.split.i, label %_full_read.exit.thread

._crit_edge.i:                                    ; preds = %17, %.preheader.i
  %.lcssa17.i = phi i64 [ %11, %.preheader.i ], [ %18, %17 ]
  %.lcssa.i = phi i32 [ %12, %.preheader.i ], [ %19, %17 ]
  %24 = icmp eq i32 %.lcssa.i, 0
  br i1 %24, label %25, label %28

25:                                               ; preds = %._crit_edge.i
  %26 = tail call i32 @get_log_level() #7
  %27 = icmp sgt i32 %26, 6
  br i1 %27, label %.loopexit.sink.split.i, label %_full_read.exit.thread

28:                                               ; preds = %._crit_edge.i
  %29 = sub nsw i32 %.01220.i, %.lcssa.i
  %30 = and i64 %.lcssa17.i, 2147483647
  %31 = getelementptr inbounds nuw i8, ptr %.021.i, i64 %30
  %32 = icmp sgt i32 %29, 0
  br i1 %32, label %.preheader.i, label %_full_read.exit, !llvm.loop !8

.loopexit.sink.split.i:                           ; preds = %25, %21
  %.str.23.sink.i = phi ptr [ @.str.22, %21 ], [ @.str.23, %25 ]
  %.013.ph.i = phi i32 [ -1, %21 ], [ 0, %25 ]
  tail call void (i32, ptr, ...) @log_var(i32 noundef 7, ptr noundef nonnull %.str.23.sink.i) #7
  br label %_full_read.exit.thread

_full_read.exit:                                  ; preds = %28
  %33 = tail call i32 @io_hdr_unpack(ptr noundef %1, ptr noundef %3)
  %34 = icmp eq i32 %33, -1
  %spec.select = select i1 %34, i32 -1, i32 10
  br label %_full_read.exit.thread

_full_read.exit.thread:                           ; preds = %.loopexit.sink.split.i, %25, %21, %_full_read.exit
  %.0 = phi i32 [ %spec.select, %_full_read.exit ], [ %.013.ph.i, %.loopexit.sink.split.i ], [ 0, %25 ], [ -1, %21 ]
  %35 = tail call i32 @get_log_level() #7
  %36 = icmp sgt i32 %35, 6
  br i1 %36, label %37, label %38

37:                                               ; preds = %_full_read.exit.thread
  tail call void (i32, ptr, ...) @log_var(i32 noundef 7, ptr noundef nonnull @.str.3, ptr noundef nonnull @__func__.io_hdr_read_fd) #7
  br label %38

38:                                               ; preds = %_full_read.exit.thread, %37
  %.not = icmp eq ptr %3, null
  br i1 %.not, label %40, label %39

39:                                               ; preds = %38
  tail call void @free_buf(ptr noundef nonnull %3) #7
  br label %40

40:                                               ; preds = %39, %38
  ret i32 %.0
}